target datalayout = "e-m:e-p270:32:32-p271:32:32-p272:64:64-i64:64-i128:128-f80:128-n8:16:32:64-S128"
target triple = "x86_64-pc-linux-gnu"

@.str.48 = private unnamed_addr constant [6 x i8] c"%s%lu\00", align 1
@.str.82 = private unnamed_addr constant [2 x i8] c" \00", align 1
@.str.221 = private unnamed_addr constant [2 x i8] c",\00", align 1
@.str.222 = private unnamed_addr constant [2 x i8] c"[\00", align 1
@.str.223 = private unnamed_addr constant [2 x i8] c"]\00", align 1
@.str.224 = private unnamed_addr constant [11 x i8] c" [SCALAR]\0A\00", align 1

; Function Attrs: nounwind uwtable
define internal zeroext i1 @print_array_type(ptr noundef %0, i64 noundef %1, i32 noundef %2) #0 {
  %4 = alloca i1, align 1
  %5 = alloca ptr, align 8
  %6 = alloca i64, align 8
  %7 = alloca i32, align 4
  %8 = alloca i64, align 8
  %9 = alloca i32, align 4
  %10 = alloca i32, align 4
  %11 = alloca ptr, align 8
  %12 = alloca i32, align 4
  store ptr %0, ptr %5, align 8, !tbaa !81
  store i64 %1, ptr %6, align 8, !tbaa !11
  store i32 %2, ptr %7, align 4, !tbaa !4
  call void @llvm.lifetime.start.p0(i64 8, ptr %8) #12
  call void @llvm.lifetime.start.p0(i64 4, ptr %9) #12
  call void @llvm.lifetime.start.p0(i64 4, ptr %10) #12
  call void @llvm.lifetime.start.p0(i64 8, ptr %11) #12
  store ptr null, ptr %11, align 8, !tbaa !140
  %13 = load i64, ptr %6, align 8, !tbaa !11
  %14 = call i32 @H5Tget_class(i64 noundef %13)
  %15 = icmp ne i32 10, %14
  br i1 %15, label %16, label %17

16:                                               ; preds = %3
  store i1 false, ptr %4, align 1
  store i32 1, ptr %12, align 4
  br label %66

17:                                               ; preds = %3
  %18 = load i64, ptr %6, align 8, !tbaa !11
  %19 = call i32 @H5Tget_array_ndims(i64 noundef %18)
  store i32 %19, ptr %9, align 4, !tbaa !4
  %20 = load i32, ptr %9, align 4, !tbaa !4
  %21 = icmp ne i32 %20, 0
  br i1 %21, label %22, label %52

22:                                               ; preds = %17
  %23 = load i32, ptr %9, align 4, !tbaa !4
  %24 = zext i32 %23 to i64
  %25 = mul i64 %24, 8
  %26 = call noalias ptr @malloc(i64 noundef %25) #17
  store ptr %26, ptr %11, align 8, !tbaa !140
  %27 = load i64, ptr %6, align 8, !tbaa !11
  %28 = load ptr, ptr %11, align 8, !tbaa !140
  %29 = call i32 @H5Tget_array_dims2(i64 noundef %27, ptr noundef %28)
  store i32 0, ptr %10, align 4, !tbaa !4
  br label %30

30:                                               ; preds = %45, %22
  %31 = load i32, ptr %10, align 4, !tbaa !4
  %32 = load i32, ptr %9, align 4, !tbaa !4
  %33 = icmp slt i32 %31, %32
  br i1 %33, label %34, label %48

34:                                               ; preds = %30
  %35 = load ptr, ptr %5, align 8, !tbaa !81
  %36 = load i32, ptr %10, align 4, !tbaa !4
  %37 = icmp ne i32 %36, 0
  %38 = select i1 %37, ptr @.str.221, ptr @.str.222
  %39 = load ptr, ptr %11, align 8, !tbaa !140
  %40 = load i32, ptr %10, align 4, !tbaa !4
  %41 = sext i32 %40 to i64
  %42 = getelementptr inbounds i64, ptr %39, i64 %41
  %43 = load i64, ptr %42, align 8, !tbaa !11
  %44 = call ptr (ptr, ptr, ...) @h5tools_str_append(ptr noundef %35, ptr noundef @.str.48, ptr noundef %38, i64 noundef %43)
  br label %45

45:                                               ; preds = %34
  %46 = load i32, ptr %10, align 4, !tbaa !4
  %47 = add nsw i32 %46, 1
  store i32 %47, ptr %10, align 4, !tbaa !4
  br label %30, !llvm.loop !142

48:                                               ; preds = %30
  %49 = load ptr, ptr %5, align 8, !tbaa !81
  %50 = call ptr (ptr, ptr, ...) @h5tools_str_append(ptr noundef %49, ptr noundef @.str.223)
  %51 = load ptr, ptr %11, align 8, !tbaa !140
  call void @free(ptr noundef %51) #12
  br label %55

52:                                               ; preds = %17
  %53 = load ptr, ptr %5, align 8, !tbaa !81
  %54 = call ptr (ptr, ptr, ...) @h5tools_str_append(ptr noundef %53, ptr noundef @.str.224)
  br label %55

55:                                               ; preds = %52, %48
  %56 = load ptr, ptr %5, align 8, !tbaa !81
  %57 = call ptr (ptr, ptr, ...) @h5tools_str_append(ptr noundef %56, ptr noundef @.str.82)
  %58 = load i64, ptr %6, align 8, !tbaa !11
  %59 = call i64 @H5Tget_super(i64 noundef %58)
  store i64 %59, ptr %8, align 8, !tbaa !11
  %60 = load ptr, ptr %5, align 8, !tbaa !81
  %61 = load i64, ptr %8, align 8, !tbaa !11
  %62 = load i32, ptr %7, align 4, !tbaa !4
  %63 = add nsw i32 %62, 4
  call void @print_type(ptr noundef %60, i64 noundef %61, i32 noundef %63)
  %64 = load i64, ptr %8, align 8, !tbaa !11
  %65 = call i32 @H5Tclose(i64 noundef %64)
  store i1 true, ptr %4, align 1
  store i32 1, ptr %12, align 4
  br label %66

66:                                               ; preds = %55, %16
  call void @llvm.lifetime.end.p0(i64 8, ptr %11) #12
  call void @llvm.lifetime.end.p0(i64 4, ptr %10) #12
  call void @llvm.lifetime.end.p0(i64 4, ptr %9) #12
  call void @llvm.lifetime.end.p0(i64 8, ptr %8) #12
  %67 = load i1, ptr %4, align 1
  ret i1 %67
}