; Function Attrs: nounwind uwtable
define internal fastcc noundef zeroext i1 @print_array_type(ptr noundef nonnull %0, i64 noundef range(i64 0, -9223372036854775808) %1, i32 noundef %2) unnamed_addr #4 {
  %4 = tail call i32 @H5Tget_class(i64 noundef %1) #20
  %.not = icmp eq i32 %4, 10
  br i1 %.not, label %5, label %25

5:                                                ; preds = %3
  %6 = tail call i32 @H5Tget_array_ndims(i64 noundef %1) #20
  %.not24 = icmp eq i32 %6, 0
  br i1 %.not24, label %18, label %7

7:                                                ; preds = %5
  %8 = zext i32 %6 to i64
  %9 = shl nuw nsw i64 %8, 3
  %10 = tail call noalias ptr @malloc(i64 noundef %9) #28
  %11 = tail call i32 @H5Tget_array_dims2(i64 noundef %1, ptr noundef %10) #20
  %12 = icmp sgt i32 %6, 0
  br i1 %12, label %.lr.ph, label %._crit_edge

.lr.ph:                                           ; preds = %7, %.lr.ph
  %indvars.iv = phi i64 [ %indvars.iv.next, %.lr.ph ], [ 0, %7 ]
  %.not25 = icmp eq i64 %indvars.iv, 0
  %13 = select i1 %.not25, ptr @.str.222, ptr @.str.221
  %14 = getelementptr inbounds nuw i64, ptr %10, i64 %indvars.iv
  %15 = load i64, ptr %14, align 8, !tbaa !44
  %16 = tail call ptr (ptr, ptr, ...) @h5tools_str_append(ptr noundef nonnull %0, ptr noundef nonnull @.str.48, ptr noundef nonnull %13, i64 noundef %15) #20
  %indvars.iv.next = add nuw nsw i64 %indvars.iv, 1
  %exitcond.not = icmp eq i64 %indvars.iv.next, %8
  br i1 %exitcond.not, label %._crit_edge, label %.lr.ph, !llvm.loop !119

._crit_edge:                                      ; preds = %.lr.ph, %7
  %17 = tail call ptr (ptr, ptr, ...) @h5tools_str_append(ptr noundef nonnull %0, ptr noundef nonnull @.str.223) #20
  tail call void @free(ptr noundef %10) #20
  br label %20

18:                                               ; preds = %5
  %19 = tail call ptr (ptr, ptr, ...) @h5tools_str_append(ptr noundef nonnull %0, ptr noundef nonnull @.str.224) #20
  br label %20

20:                                               ; preds = %18, %._crit_edge
  %21 = tail call ptr (ptr, ptr, ...) @h5tools_str_append(ptr noundef nonnull %0, ptr noundef nonnull @.str.82) #20
  %22 = tail call i64 @H5Tget_super(i64 noundef %1) #20
  %23 = add nsw i32 %2, 4
  tail call fastcc void @print_type(ptr noundef %0, i64 noundef %22, i32 noundef %23)
  %24 = tail call i32 @H5Tclose(i64 noundef %22) #20
  br label %25

25:                                               ; preds = %3, %20
  ret i1 %.not
}